; Function Attrs: mustprogress nounwind uwtable
define hidden void @_ZN10ciTypeFlow11StateVector12do_putstaticEP16ciBytecodeStream(ptr nocapture noundef nonnull align 8 dereferenceable(40) %0, ptr noundef nonnull %1) local_unnamed_addr #0 align 2 {
  %3 = alloca i8, align 1
  %4 = call noundef ptr @_ZN16ciBytecodeStream9get_fieldERb(ptr noundef nonnull align 8 dereferenceable(72) %1, ptr noundef nonnull align 1 dereferenceable(1) %3) #14
  %5 = load i8, ptr %3, align 1
  %6 = trunc i8 %5 to i1
  br i1 %6, label %11, label %7

7:                                                ; preds = %2
  %8 = getelementptr inbounds i8, ptr %4, i64 8
  %9 = load ptr, ptr %8, align 8
  %10 = call noundef i32 @_ZN16ciBytecodeStream22get_field_holder_indexEv(ptr noundef nonnull align 8 dereferenceable(72) %1) #14
  call void @_ZN10ciTypeFlow11StateVector4trapEP16ciBytecodeStreamP7ciKlassi(ptr noundef nonnull align 8 dereferenceable(40) %0, ptr noundef nonnull %1, ptr noundef %9, i32 noundef %10)
  br label %29

11:                                               ; preds = %2
  %12 = getelementptr inbounds i8, ptr %4, i64 32
  %13 = load ptr, ptr %12, align 8
  %14 = icmp eq ptr %13, null
  br i1 %14, label %15, label %_ZN7ciField4typeEv.exit

15:                                               ; preds = %11
  %16 = call noundef ptr @_ZN7ciField12compute_typeEv(ptr noundef nonnull align 8 dereferenceable(80) %4) #14
  br label %_ZN7ciField4typeEv.exit

_ZN7ciField4typeEv.exit:                          ; preds = %11, %15
  %17 = phi ptr [ %16, %15 ], [ %13, %11 ]
  %18 = getelementptr inbounds i8, ptr %0, i64 8
  %19 = load i32, ptr %18, align 8
  %20 = add nsw i32 %19, -1
  store i32 %20, ptr %18, align 8
  %21 = getelementptr inbounds i8, ptr %17, i64 24
  %22 = load i8, ptr %21, align 8
  %23 = zext i8 %22 to i64
  %24 = getelementptr inbounds [20 x i32], ptr @type2size, i64 0, i64 %23
  %25 = load i32, ptr %24, align 4
  %26 = icmp eq i32 %25, 2
  br i1 %26, label %27, label %29

27:                                               ; preds = %_ZN7ciField4typeEv.exit
  %28 = add nsw i32 %19, -2
  store i32 %28, ptr %18, align 8
  br label %29

29:                                               ; preds = %_ZN7ciField4typeEv.exit, %27, %7
  ret void
}